target datalayout = "e-m:e-p270:32:32-p271:32:32-p272:64:64-i64:64-i128:128-f80:128-n8:16:32:64-S128"
target triple = "x86_64-unknown-linux-gnu"

@.str = private unnamed_addr constant [14 x i8] c"icudt75l-coll\00", align 1
@.str.1 = private unnamed_addr constant [5 x i8] c"root\00", align 1
@_ZN6icu_7512_GLOBAL__N_110rootBundleE = internal global ptr null, align 8
@.str.2 = private unnamed_addr constant [9 x i8] c"UCARules\00", align 1
@_ZN6icu_7512_GLOBAL__N_115rootRulesLengthE = internal global i32 0, align 4
@_ZN6icu_7512_GLOBAL__N_19rootRulesE = internal global ptr null, align 8

; Function Attrs: mustprogress nounwind uwtable
define internal noundef signext i8 @_ZL9U_FAILURE10UErrorCode(i32 noundef %code) #0 {
entry:
  %code.addr = alloca i32, align 4
  store i32 %code, ptr %code.addr, align 4
  %0 = load i32, ptr %code.addr, align 4
  %cmp = icmp sgt i32 %0, 0
  %conv = zext i1 %cmp to i8
  ret i8 %conv
}

; Function Attrs: mustprogress uwtable
define void @_ZN6icu_7515CollationLoader13loadRootRulesER10UErrorCode(ptr noundef nonnull align 4 dereferenceable(4) %errorCode) #1 align 2 {
entry:
  %errorCode.addr = alloca ptr, align 8
  store ptr %errorCode, ptr %errorCode.addr, align 8
  %0 = load ptr, ptr %errorCode.addr, align 8
  %1 = load i32, ptr %0, align 4
  %call = call noundef signext i8 @_ZL9U_FAILURE10UErrorCode(i32 noundef %1)
  %tobool = icmp ne i8 %call, 0
  br i1 %tobool, label %if.then, label %if.end

if.then:                                          ; preds = %entry
  br label %return

if.end:                                           ; preds = %entry
  %2 = load ptr, ptr %errorCode.addr, align 8
  %call1 = call ptr @ures_open_75(ptr noundef @.str, ptr noundef @.str.1, ptr noundef %2)
  store ptr %call1, ptr @_ZN6icu_7512_GLOBAL__N_110rootBundleE, align 8
  %3 = load ptr, ptr %errorCode.addr, align 8
  %4 = load i32, ptr %3, align 4
  %call2 = call noundef signext i8 @_ZL9U_FAILURE10UErrorCode(i32 noundef %4)
  %tobool3 = icmp ne i8 %call2, 0
  br i1 %tobool3, label %if.then4, label %if.end5

if.then4:                                         ; preds = %if.end
  br label %return

if.end5:                                          ; preds = %if.end
  %5 = load ptr, ptr @_ZN6icu_7512_GLOBAL__N_110rootBundleE, align 8
  %6 = load ptr, ptr %errorCode.addr, align 8
  %call6 = call ptr @ures_getStringByKey_75(ptr noundef %5, ptr noundef @.str.2, ptr noundef @_ZN6icu_7512_GLOBAL__N_115rootRulesLengthE, ptr noundef %6)
  store ptr %call6, ptr @_ZN6icu_7512_GLOBAL__N_19rootRulesE, align 8
  %7 = load ptr, ptr %errorCode.addr, align 8
  %8 = load i32, ptr %7, align 4
  %call7 = call noundef signext i8 @_ZL9U_FAILURE10UErrorCode(i32 noundef %8)
  %tobool8 = icmp ne i8 %call7, 0
  br i1 %tobool8, label %if.then9, label %if.end10

if.then9:                                         ; preds = %if.end5
  %9 = load ptr, ptr @_ZN6icu_7512_GLOBAL__N_110rootBundleE, align 8
  call void @ures_close_75(ptr noundef %9)
  store ptr null, ptr @_ZN6icu_7512_GLOBAL__N_110rootBundleE, align 8
  br label %return

if.end10:                                         ; preds = %if.end5
  call void @ucln_i18n_registerCleanup_75(i32 noundef 28, ptr noundef @_ZN6icu_75L16ucol_res_cleanupEv)
  br label %return

return:                                           ; preds = %if.end10, %if.then9, %if.then4, %if.then
  ret void
}