; Function Attrs: mustprogress uwtable
define void @_ZN6icu_7515CollationLoader13loadRootRulesER10UErrorCode(ptr noundef nonnull align 4 dereferenceable(4) %errorCode) local_unnamed_addr #1 align 2 {
entry:
  %0 = load i32, ptr %errorCode, align 4
  %cmp.i = icmp slt i32 %0, 1
  br i1 %cmp.i, label %if.end, label %return

if.end:                                           ; preds = %entry
  %call1 = tail call ptr @ures_open_75(ptr noundef nonnull @.str, ptr noundef nonnull @.str.1, ptr noundef nonnull %errorCode)
  store ptr %call1, ptr @_ZN6icu_7512_GLOBAL__N_110rootBundleE, align 8
  %1 = load i32, ptr %errorCode, align 4
  %cmp.i5 = icmp slt i32 %1, 1
  br i1 %cmp.i5, label %if.end5, label %return

if.end5:                                          ; preds = %if.end
  %call6 = tail call ptr @ures_getStringByKey_75(ptr noundef %call1, ptr noundef nonnull @.str.2, ptr noundef nonnull @_ZN6icu_7512_GLOBAL__N_115rootRulesLengthE, ptr noundef nonnull %errorCode)
  store ptr %call6, ptr @_ZN6icu_7512_GLOBAL__N_19rootRulesE, align 8
  %2 = load i32, ptr %errorCode, align 4
  %cmp.i7 = icmp slt i32 %2, 1
  br i1 %cmp.i7, label %if.end10, label %if.then9

if.then9:                                         ; preds = %if.end5
  %3 = load ptr, ptr @_ZN6icu_7512_GLOBAL__N_110rootBundleE, align 8
  tail call void @ures_close_75(ptr noundef %3)
  store ptr null, ptr @_ZN6icu_7512_GLOBAL__N_110rootBundleE, align 8
  br label %return

if.end10:                                         ; preds = %if.end5
  tail call void @ucln_i18n_registerCleanup_75(i32 noundef 28, ptr noundef nonnull @_ZN6icu_75L16ucol_res_cleanupEv)
  br label %return

return:                                           ; preds = %if.end, %entry, %if.end10, %if.then9
  ret void
}